target datalayout = "e-m:e-p270:32:32-p271:32:32-p272:64:64-i64:64-i128:128-f80:128-n8:16:32:64-S128"
target triple = "x86_64-pc-linux-gnu"

%struct._zval_struct = type { %union._zend_value, %union.anon, %union.anon.2 }
%union._zend_value = type { i64 }
%union.anon = type { i32 }
%union.anon.2 = type { i32 }
%struct._zend_refcounted_h = type { i32, %union.anon.3 }
%union.anon.3 = type { i32 }
%struct.php_sxe_object = type { ptr, ptr, ptr, ptr, %struct.anon.8, %struct._zval_struct, ptr, %struct._zend_object }
%struct.anon.8 = type { ptr, ptr, i32, i32, %struct._zval_struct }
%struct._zend_object = type { %struct._zend_refcounted_h, i32, ptr, ptr, ptr, [1 x %struct._zval_struct] }
%struct._php_libxml_node_ptr = type { ptr, i32, ptr }
%struct._xmlNode = type { ptr, i32, ptr, ptr, ptr, ptr, ptr, ptr, ptr, ptr, ptr, ptr, ptr, ptr, i16, i16 }
%struct._zend_string = type { %struct._zend_refcounted_h, i64, i64, [1 x i8] }
%struct.php_sxe_iterator = type { %struct._zend_object_iterator, ptr }
%struct._zend_object_iterator = type { %struct._zend_object, %struct._zval_struct, ptr, i64 }

; Function Attrs: nounwind uwtable
define internal ptr @php_sxe_fetch_object(ptr noundef %0) #0 {
  %2 = alloca ptr, align 8
  store ptr %0, ptr %2, align 8
  %3 = load ptr, ptr %2, align 8
  %4 = getelementptr inbounds i8, ptr %3, i64 -96
  ret ptr %4
}

; Function Attrs: nounwind uwtable
define internal void @php_sxe_iterator_current_key(ptr noundef %0, ptr noundef %1) #0 {
  %3 = alloca ptr, align 8
  %4 = alloca i32, align 4
  %5 = alloca i64, align 8
  %6 = alloca i8, align 1
  %7 = alloca ptr, align 8
  %8 = alloca ptr, align 8
  %9 = alloca i64, align 8
  %10 = alloca i8, align 1
  %11 = alloca ptr, align 8
  %12 = alloca ptr, align 8
  %13 = alloca ptr, align 8
  %14 = alloca ptr, align 8
  %15 = alloca ptr, align 8
  %16 = alloca ptr, align 8
  %17 = alloca ptr, align 8
  %18 = alloca ptr, align 8
  %19 = alloca ptr, align 8
  store ptr %0, ptr %12, align 8
  store ptr %1, ptr %13, align 8
  %20 = load ptr, ptr %12, align 8
  store ptr %20, ptr %14, align 8
  %21 = load ptr, ptr %14, align 8
  %22 = getelementptr inbounds %struct.php_sxe_iterator, ptr %21, i32 0, i32 1
  %23 = load ptr, ptr %22, align 8
  %24 = getelementptr inbounds %struct.php_sxe_object, ptr %23, i32 0, i32 4
  %25 = getelementptr inbounds %struct.anon.8, ptr %24, i32 0, i32 4
  store ptr %25, ptr %15, align 8
  %26 = load ptr, ptr %15, align 8
  %27 = getelementptr inbounds %struct._zval_struct, ptr %26, i32 0, i32 0
  %28 = load ptr, ptr %27, align 8
  %29 = call ptr @php_sxe_fetch_object(ptr noundef %28)
  store ptr %29, ptr %16, align 8
  store ptr null, ptr %17, align 8
  %30 = load ptr, ptr %16, align 8
  %31 = icmp ne ptr %30, null
  br i1 %31, label %32, label %43

32:                                               ; preds = %2
  %33 = load ptr, ptr %16, align 8
  %34 = getelementptr inbounds %struct.php_sxe_object, ptr %33, i32 0, i32 0
  %35 = load ptr, ptr %34, align 8
  %36 = icmp ne ptr %35, null
  br i1 %36, label %37, label %43

37:                                               ; preds = %32
  %38 = load ptr, ptr %16, align 8
  %39 = getelementptr inbounds %struct.php_sxe_object, ptr %38, i32 0, i32 0
  %40 = load ptr, ptr %39, align 8
  %41 = getelementptr inbounds %struct._php_libxml_node_ptr, ptr %40, i32 0, i32 0
  %42 = load ptr, ptr %41, align 8
  store ptr %42, ptr %17, align 8
  br label %43

43:                                               ; preds = %37, %32, %2
  %44 = load ptr, ptr %17, align 8
  %45 = icmp ne ptr %44, null
  br i1 %45, label %46, label %509

46:                                               ; preds = %43
  br label %47

47:                                               ; preds = %46
  br label %48

48:                                               ; preds = %47
  %49 = load ptr, ptr %13, align 8
  store ptr %49, ptr %18, align 8
  %50 = load ptr, ptr %17, align 8
  %51 = getelementptr inbounds %struct._xmlNode, ptr %50, i32 0, i32 2
  %52 = load ptr, ptr %51, align 8
  %53 = load ptr, ptr %17, align 8
  %54 = getelementptr inbounds %struct._xmlNode, ptr %53, i32 0, i32 2
  %55 = load ptr, ptr %54, align 8
  %56 = call i32 @xmlStrlen(ptr noundef %55)
  %57 = sext i32 %56 to i64
  store ptr %52, ptr %8, align 8
  store i64 %57, ptr %9, align 8
  store i8 0, ptr %10, align 1
  %58 = load i64, ptr %9, align 8
  %59 = load i8, ptr %10, align 1
  %60 = trunc i8 %59 to i1
  store i64 %58, ptr %5, align 8
  %61 = zext i1 %60 to i8
  store i8 %61, ptr %6, align 1
  %62 = load i8, ptr %6, align 1
  %63 = trunc i8 %62 to i1
  br i1 %63, label %64, label %72

64:                                               ; preds = %48
  %65 = load i64, ptr %5, align 8
  %66 = add i64 24, %65
  %67 = add i64 %66, 1
  %68 = add i64 %67, 8
  %69 = sub i64 %68, 1
  %70 = and i64 %69, -8
  %71 = call noalias ptr @__zend_malloc(i64 noundef %70) #10
  br label %476

72:                                               ; preds = %48
  %73 = load i64, ptr %5, align 8
  %74 = add i64 24, %73
  %75 = add i64 %74, 1
  %76 = add i64 %75, 8
  %77 = sub i64 %76, 1
  %78 = and i64 %77, -8
  %79 = call i1 @llvm.is.constant.i64(i64 %78)
  br i1 %79, label %80, label %466

80:                                               ; preds = %72
  %81 = load i64, ptr %5, align 8
  %82 = add i64 24, %81
  %83 = add i64 %82, 1
  %84 = add i64 %83, 8
  %85 = sub i64 %84, 1
  %86 = and i64 %85, -8
  %87 = icmp ule i64 %86, 8
  br i1 %87, label %88, label %90

88:                                               ; preds = %80
  %89 = call noalias ptr @_emalloc_8() #9
  br label %464

90:                                               ; preds = %80
  %91 = load i64, ptr %5, align 8
  %92 = add i64 24, %91
  %93 = add i64 %92, 1
  %94 = add i64 %93, 8
  %95 = sub i64 %94, 1
  %96 = and i64 %95, -8
  %97 = icmp ule i64 %96, 16
  br i1 %97, label %98, label %100

98:                                               ; preds = %90
  %99 = call noalias ptr @_emalloc_16() #9
  br label %462

100:                                              ; preds = %90
  %101 = load i64, ptr %5, align 8
  %102 = add i64 24, %101
  %103 = add i64 %102, 1
  %104 = add i64 %103, 8
  %105 = sub i64 %104, 1
  %106 = and i64 %105, -8
  %107 = icmp ule i64 %106, 24
  br i1 %107, label %108, label %110

108:                                              ; preds = %100
  %109 = call noalias ptr @_emalloc_24() #9
  br label %460

110:                                              ; preds = %100
  %111 = load i64, ptr %5, align 8
  %112 = add i64 24, %111
  %113 = add i64 %112, 1
  %114 = add i64 %113, 8
  %115 = sub i64 %114, 1
  %116 = and i64 %115, -8
  %117 = icmp ule i64 %116, 32
  br i1 %117, label %118, label %120

118:                                              ; preds = %110
  %119 = call noalias ptr @_emalloc_32() #9
  br label %458

120:                                              ; preds = %110
  %121 = load i64, ptr %5, align 8
  %122 = add i64 24, %121
  %123 = add i64 %122, 1
  %124 = add i64 %123, 8
  %125 = sub i64 %124, 1
  %126 = and i64 %125, -8
  %127 = icmp ule i64 %126, 40
  br i1 %127, label %128, label %130

128:                                              ; preds = %120
  %129 = call noalias ptr @_emalloc_40() #9
  br label %456

130:                                              ; preds = %120
  %131 = load i64, ptr %5, align 8
  %132 = add i64 24, %131
  %133 = add i64 %132, 1
  %134 = add i64 %133, 8
  %135 = sub i64 %134, 1
  %136 = and i64 %135, -8
  %137 = icmp ule i64 %136, 48
  br i1 %137, label %138, label %140

138:                                              ; preds = %130
  %139 = call noalias ptr @_emalloc_48() #9
  br label %454

140:                                              ; preds = %130
  %141 = load i64, ptr %5, align 8
  %142 = add i64 24, %141
  %143 = add i64 %142, 1
  %144 = add i64 %143, 8
  %145 = sub i64 %144, 1
  %146 = and i64 %145, -8
  %147 = icmp ule i64 %146, 56
  br i1 %147, label %148, label %150

148:                                              ; preds = %140
  %149 = call noalias ptr @_emalloc_56() #9
  br label %452

150:                                              ; preds = %140
  %151 = load i64, ptr %5, align 8
  %152 = add i64 24, %151
  %153 = add i64 %152, 1
  %154 = add i64 %153, 8
  %155 = sub i64 %154, 1
  %156 = and i64 %155, -8
  %157 = icmp ule i64 %156, 64
  br i1 %157, label %158, label %160

158:                                              ; preds = %150
  %159 = call noalias ptr @_emalloc_64() #9
  br label %450

160:                                              ; preds = %150
  %161 = load i64, ptr %5, align 8
  %162 = add i64 24, %161
  %163 = add i64 %162, 1
  %164 = add i64 %163, 8
  %165 = sub i64 %164, 1
  %166 = and i64 %165, -8
  %167 = icmp ule i64 %166, 80
  br i1 %167, label %168, label %170

168:                                              ; preds = %160
  %169 = call noalias ptr @_emalloc_80() #9
  br label %448

170:                                              ; preds = %160
  %171 = load i64, ptr %5, align 8
  %172 = add i64 24, %171
  %173 = add i64 %172, 1
  %174 = add i64 %173, 8
  %175 = sub i64 %174, 1
  %176 = and i64 %175, -8
  %177 = icmp ule i64 %176, 96
  br i1 %177, label %178, label %180

178:                                              ; preds = %170
  %179 = call noalias ptr @_emalloc_96() #9
  br label %446

180:                                              ; preds = %170
  %181 = load i64, ptr %5, align 8
  %182 = add i64 24, %181
  %183 = add i64 %182, 1
  %184 = add i64 %183, 8
  %185 = sub i64 %184, 1
  %186 = and i64 %185, -8
  %187 = icmp ule i64 %186, 112
  br i1 %187, label %188, label %190

188:                                              ; preds = %180
  %189 = call noalias ptr @_emalloc_112() #9
  br label %444

190:                                              ; preds = %180
  %191 = load i64, ptr %5, align 8
  %192 = add i64 24, %191
  %193 = add i64 %192, 1
  %194 = add i64 %193, 8
  %195 = sub i64 %194, 1
  %196 = and i64 %195, -8
  %197 = icmp ule i64 %196, 128
  br i1 %197, label %198, label %200

198:                                              ; preds = %190
  %199 = call noalias ptr @_emalloc_128() #9
  br label %442

200:                                              ; preds = %190
  %201 = load i64, ptr %5, align 8
  %202 = add i64 24, %201
  %203 = add i64 %202, 1
  %204 = add i64 %203, 8
  %205 = sub i64 %204, 1
  %206 = and i64 %205, -8
  %207 = icmp ule i64 %206, 160
  br i1 %207, label %208, label %210

208:                                              ; preds = %200
  %209 = call noalias ptr @_emalloc_160() #9
  br label %440

210:                                              ; preds = %200
  %211 = load i64, ptr %5, align 8
  %212 = add i64 24, %211
  %213 = add i64 %212, 1
  %214 = add i64 %213, 8
  %215 = sub i64 %214, 1
  %216 = and i64 %215, -8
  %217 = icmp ule i64 %216, 192
  br i1 %217, label %218, label %220

218:                                              ; preds = %210
  %219 = call noalias ptr @_emalloc_192() #9
  br label %438

220:                                              ; preds = %210
  %221 = load i64, ptr %5, align 8
  %222 = add i64 24, %221
  %223 = add i64 %222, 1
  %224 = add i64 %223, 8
  %225 = sub i64 %224, 1
  %226 = and i64 %225, -8
  %227 = icmp ule i64 %226, 224
  br i1 %227, label %228, label %230

228:                                              ; preds = %220
  %229 = call noalias ptr @_emalloc_224() #9
  br label %436

230:                                              ; preds = %220
  %231 = load i64, ptr %5, align 8
  %232 = add i64 24, %231
  %233 = add i64 %232, 1
  %234 = add i64 %233, 8
  %235 = sub i64 %234, 1
  %236 = and i64 %235, -8
  %237 = icmp ule i64 %236, 256
  br i1 %237, label %238, label %240

238:                                              ; preds = %230
  %239 = call noalias ptr @_emalloc_256() #9
  br label %434

240:                                              ; preds = %230
  %241 = load i64, ptr %5, align 8
  %242 = add i64 24, %241
  %243 = add i64 %242, 1
  %244 = add i64 %243, 8
  %245 = sub i64 %244, 1
  %246 = and i64 %245, -8
  %247 = icmp ule i64 %246, 320
  br i1 %247, label %248, label %250

248:                                              ; preds = %240
  %249 = call noalias ptr @_emalloc_320() #9
  br label %432

250:                                              ; preds = %240
  %251 = load i64, ptr %5, align 8
  %252 = add i64 24, %251
  %253 = add i64 %252, 1
  %254 = add i64 %253, 8
  %255 = sub i64 %254, 1
  %256 = and i64 %255, -8
  %257 = icmp ule i64 %256, 384
  br i1 %257, label %258, label %260

258:                                              ; preds = %250
  %259 = call noalias ptr @_emalloc_384() #9
  br label %430

260:                                              ; preds = %250
  %261 = load i64, ptr %5, align 8
  %262 = add i64 24, %261
  %263 = add i64 %262, 1
  %264 = add i64 %263, 8
  %265 = sub i64 %264, 1
  %266 = and i64 %265, -8
  %267 = icmp ule i64 %266, 448
  br i1 %267, label %268, label %270

268:                                              ; preds = %260
  %269 = call noalias ptr @_emalloc_448() #9
  br label %428

270:                                              ; preds = %260
  %271 = load i64, ptr %5, align 8
  %272 = add i64 24, %271
  %273 = add i64 %272, 1
  %274 = add i64 %273, 8
  %275 = sub i64 %274, 1
  %276 = and i64 %275, -8
  %277 = icmp ule i64 %276, 512
  br i1 %277, label %278, label %280

278:                                              ; preds = %270
  %279 = call noalias ptr @_emalloc_512() #9
  br label %426

280:                                              ; preds = %270
  %281 = load i64, ptr %5, align 8
  %282 = add i64 24, %281
  %283 = add i64 %282, 1
  %284 = add i64 %283, 8
  %285 = sub i64 %284, 1
  %286 = and i64 %285, -8
  %287 = icmp ule i64 %286, 640
  br i1 %287, label %288, label %290

288:                                              ; preds = %280
  %289 = call noalias ptr @_emalloc_640() #9
  br label %424

290:                                              ; preds = %280
  %291 = load i64, ptr %5, align 8
  %292 = add i64 24, %291
  %293 = add i64 %292, 1
  %294 = add i64 %293, 8
  %295 = sub i64 %294, 1
  %296 = and i64 %295, -8
  %297 = icmp ule i64 %296, 768
  br i1 %297, label %298, label %300

298:                                              ; preds = %290
  %299 = call noalias ptr @_emalloc_768() #9
  br label %422

300:                                              ; preds = %290
  %301 = load i64, ptr %5, align 8
  %302 = add i64 24, %301
  %303 = add i64 %302, 1
  %304 = add i64 %303, 8
  %305 = sub i64 %304, 1
  %306 = and i64 %305, -8
  %307 = icmp ule i64 %306, 896
  br i1 %307, label %308, label %310

308:                                              ; preds = %300
  %309 = call noalias ptr @_emalloc_896() #9
  br label %420

310:                                              ; preds = %300
  %311 = load i64, ptr %5, align 8
  %312 = add i64 24, %311
  %313 = add i64 %312, 1
  %314 = add i64 %313, 8
  %315 = sub i64 %314, 1
  %316 = and i64 %315, -8
  %317 = icmp ule i64 %316, 1024
  br i1 %317, label %318, label %320

318:                                              ; preds = %310
  %319 = call noalias ptr @_emalloc_1024() #9
  br label %418

320:                                              ; preds = %310
  %321 = load i64, ptr %5, align 8
  %322 = add i64 24, %321
  %323 = add i64 %322, 1
  %324 = add i64 %323, 8
  %325 = sub i64 %324, 1
  %326 = and i64 %325, -8
  %327 = icmp ule i64 %326, 1280
  br i1 %327, label %328, label %330

328:                                              ; preds = %320
  %329 = call noalias ptr @_emalloc_1280() #9
  br label %416

330:                                              ; preds = %320
  %331 = load i64, ptr %5, align 8
  %332 = add i64 24, %331
  %333 = add i64 %332, 1
  %334 = add i64 %333, 8
  %335 = sub i64 %334, 1
  %336 = and i64 %335, -8
  %337 = icmp ule i64 %336, 1536
  br i1 %337, label %338, label %340

338:                                              ; preds = %330
  %339 = call noalias ptr @_emalloc_1536() #9
  br label %414

340:                                              ; preds = %330
  %341 = load i64, ptr %5, align 8
  %342 = add i64 24, %341
  %343 = add i64 %342, 1
  %344 = add i64 %343, 8
  %345 = sub i64 %344, 1
  %346 = and i64 %345, -8
  %347 = icmp ule i64 %346, 1792
  br i1 %347, label %348, label %350

348:                                              ; preds = %340
  %349 = call noalias ptr @_emalloc_1792() #9
  br label %412

350:                                              ; preds = %340
  %351 = load i64, ptr %5, align 8
  %352 = add i64 24, %351
  %353 = add i64 %352, 1
  %354 = add i64 %353, 8
  %355 = sub i64 %354, 1
  %356 = and i64 %355, -8
  %357 = icmp ule i64 %356, 2048
  br i1 %357, label %358, label %360

358:                                              ; preds = %350
  %359 = call noalias ptr @_emalloc_2048() #9
  br label %410

360:                                              ; preds = %350
  %361 = load i64, ptr %5, align 8
  %362 = add i64 24, %361
  %363 = add i64 %362, 1
  %364 = add i64 %363, 8
  %365 = sub i64 %364, 1
  %366 = and i64 %365, -8
  %367 = icmp ule i64 %366, 2560
  br i1 %367, label %368, label %370

368:                                              ; preds = %360
  %369 = call noalias ptr @_emalloc_2560() #9
  br label %408

370:                                              ; preds = %360
  %371 = load i64, ptr %5, align 8
  %372 = add i64 24, %371
  %373 = add i64 %372, 1
  %374 = add i64 %373, 8
  %375 = sub i64 %374, 1
  %376 = and i64 %375, -8
  %377 = icmp ule i64 %376, 3072
  br i1 %377, label %378, label %380

378:                                              ; preds = %370
  %379 = call noalias ptr @_emalloc_3072() #9
  br label %406

380:                                              ; preds = %370
  %381 = load i64, ptr %5, align 8
  %382 = add i64 24, %381
  %383 = add i64 %382, 1
  %384 = add i64 %383, 8
  %385 = sub i64 %384, 1
  %386 = and i64 %385, -8
  %387 = icmp ule i64 %386, 2093056
  br i1 %387, label %388, label %396

388:                                              ; preds = %380
  %389 = load i64, ptr %5, align 8
  %390 = add i64 24, %389
  %391 = add i64 %390, 1
  %392 = add i64 %391, 8
  %393 = sub i64 %392, 1
  %394 = and i64 %393, -8
  %395 = call noalias ptr @_emalloc_large(i64 noundef %394) #10
  br label %404

396:                                              ; preds = %380
  %397 = load i64, ptr %5, align 8
  %398 = add i64 24, %397
  %399 = add i64 %398, 1
  %400 = add i64 %399, 8
  %401 = sub i64 %400, 1
  %402 = and i64 %401, -8
  %403 = call noalias ptr @_emalloc_huge(i64 noundef %402) #10
  br label %404

404:                                              ; preds = %396, %388
  %405 = phi ptr [ %395, %388 ], [ %403, %396 ]
  br label %406

406:                                              ; preds = %404, %378
  %407 = phi ptr [ %379, %378 ], [ %405, %404 ]
  br label %408

408:                                              ; preds = %406, %368
  %409 = phi ptr [ %369, %368 ], [ %407, %406 ]
  br label %410

410:                                              ; preds = %408, %358
  %411 = phi ptr [ %359, %358 ], [ %409, %408 ]
  br label %412

412:                                              ; preds = %410, %348
  %413 = phi ptr [ %349, %348 ], [ %411, %410 ]
  br label %414

414:                                              ; preds = %412, %338
  %415 = phi ptr [ %339, %338 ], [ %413, %412 ]
  br label %416

416:                                              ; preds = %414, %328
  %417 = phi ptr [ %329, %328 ], [ %415, %414 ]
  br label %418

418:                                              ; preds = %416, %318
  %419 = phi ptr [ %319, %318 ], [ %417, %416 ]
  br label %420

420:                                              ; preds = %418, %308
  %421 = phi ptr [ %309, %308 ], [ %419, %418 ]
  br label %422

422:                                              ; preds = %420, %298
  %423 = phi ptr [ %299, %298 ], [ %421, %420 ]
  br label %424

424:                                              ; preds = %422, %288
  %425 = phi ptr [ %289, %288 ], [ %423, %422 ]
  br label %426

426:                                              ; preds = %424, %278
  %427 = phi ptr [ %279, %278 ], [ %425, %424 ]
  br label %428

428:                                              ; preds = %426, %268
  %429 = phi ptr [ %269, %268 ], [ %427, %426 ]
  br label %430

430:                                              ; preds = %428, %258
  %431 = phi ptr [ %259, %258 ], [ %429, %428 ]
  br label %432

432:                                              ; preds = %430, %248
  %433 = phi ptr [ %249, %248 ], [ %431, %430 ]
  br label %434

434:                                              ; preds = %432, %238
  %435 = phi ptr [ %239, %238 ], [ %433, %432 ]
  br label %436

436:                                              ; preds = %434, %228
  %437 = phi ptr [ %229, %228 ], [ %435, %434 ]
  br label %438

438:                                              ; preds = %436, %218
  %439 = phi ptr [ %219, %218 ], [ %437, %436 ]
  br label %440

440:                                              ; preds = %438, %208
  %441 = phi ptr [ %209, %208 ], [ %439, %438 ]
  br label %442

442:                                              ; preds = %440, %198
  %443 = phi ptr [ %199, %198 ], [ %441, %440 ]
  br label %444

444:                                              ; preds = %442, %188
  %445 = phi ptr [ %189, %188 ], [ %443, %442 ]
  br label %446

446:                                              ; preds = %444, %178
  %447 = phi ptr [ %179, %178 ], [ %445, %444 ]
  br label %448

448:                                              ; preds = %446, %168
  %449 = phi ptr [ %169, %168 ], [ %447, %446 ]
  br label %450

450:                                              ; preds = %448, %158
  %451 = phi ptr [ %159, %158 ], [ %449, %448 ]
  br label %452

452:                                              ; preds = %450, %148
  %453 = phi ptr [ %149, %148 ], [ %451, %450 ]
  br label %454

454:                                              ; preds = %452, %138
  %455 = phi ptr [ %139, %138 ], [ %453, %452 ]
  br label %456

456:                                              ; preds = %454, %128
  %457 = phi ptr [ %129, %128 ], [ %455, %454 ]
  br label %458

458:                                              ; preds = %456, %118
  %459 = phi ptr [ %119, %118 ], [ %457, %456 ]
  br label %460

460:                                              ; preds = %458, %108
  %461 = phi ptr [ %109, %108 ], [ %459, %458 ]
  br label %462

462:                                              ; preds = %460, %98
  %463 = phi ptr [ %99, %98 ], [ %461, %460 ]
  br label %464

464:                                              ; preds = %462, %88
  %465 = phi ptr [ %89, %88 ], [ %463, %462 ]
  br label %474

466:                                              ; preds = %72
  %467 = load i64, ptr %5, align 8
  %468 = add i64 24, %467
  %469 = add i64 %468, 1
  %470 = add i64 %469, 8
  %471 = sub i64 %470, 1
  %472 = and i64 %471, -8
  %473 = call noalias ptr @_emalloc(i64 noundef %472) #10
  br label %474

474:                                              ; preds = %466, %464
  %475 = phi ptr [ %465, %464 ], [ %473, %466 ]
  br label %476

476:                                              ; preds = %474, %64
  %477 = phi ptr [ %71, %64 ], [ %475, %474 ]
  store ptr %477, ptr %7, align 8
  %478 = load ptr, ptr %7, align 8
  store ptr %478, ptr %3, align 8
  store i32 1, ptr %4, align 4
  %479 = load i32, ptr %4, align 4
  %480 = load ptr, ptr %3, align 8
  store i32 %479, ptr %480, align 4
  %481 = load i8, ptr %6, align 1
  %482 = trunc i8 %481 to i1
  %483 = select i1 %482, i32 128, i32 0
  %484 = or i32 22, %483
  %485 = load ptr, ptr %7, align 8
  %486 = getelementptr inbounds %struct._zend_refcounted_h, ptr %485, i32 0, i32 1
  store i32 %484, ptr %486, align 4
  %487 = load ptr, ptr %7, align 8
  %488 = getelementptr inbounds %struct._zend_string, ptr %487, i32 0, i32 1
  store i64 0, ptr %488, align 8
  %489 = load i64, ptr %5, align 8
  %490 = load ptr, ptr %7, align 8
  %491 = getelementptr inbounds %struct._zend_string, ptr %490, i32 0, i32 2
  store i64 %489, ptr %491, align 8
  %492 = load ptr, ptr %7, align 8
  store ptr %492, ptr %11, align 8
  %493 = load ptr, ptr %11, align 8
  %494 = getelementptr inbounds %struct._zend_string, ptr %493, i32 0, i32 3
  %495 = load ptr, ptr %8, align 8
  %496 = load i64, ptr %9, align 8
  call void @llvm.memcpy.p0.p0.i64(ptr align 8 %494, ptr align 1 %495, i64 %496, i1 false)
  %497 = load ptr, ptr %11, align 8
  %498 = getelementptr inbounds %struct._zend_string, ptr %497, i32 0, i32 3
  %499 = load i64, ptr %9, align 8
  %500 = getelementptr inbounds [1 x i8], ptr %498, i64 0, i64 %499
  store i8 0, ptr %500, align 1
  %501 = load ptr, ptr %11, align 8
  store ptr %501, ptr %19, align 8
  %502 = load ptr, ptr %19, align 8
  %503 = load ptr, ptr %18, align 8
  %504 = getelementptr inbounds %struct._zval_struct, ptr %503, i32 0, i32 0
  store ptr %502, ptr %504, align 8
  %505 = load ptr, ptr %18, align 8
  %506 = getelementptr inbounds %struct._zval_struct, ptr %505, i32 0, i32 1
  store i32 262, ptr %506, align 8
  br label %507

507:                                              ; preds = %476
  br label %508

508:                                              ; preds = %507
  br label %514

509:                                              ; preds = %43
  br label %510

510:                                              ; preds = %509
  %511 = load ptr, ptr %13, align 8
  %512 = getelementptr inbounds %struct._zval_struct, ptr %511, i32 0, i32 1
  store i32 1, ptr %512, align 8
  br label %513

513:                                              ; preds = %510
  br label %514

514:                                              ; preds = %513, %508
  ret void
}