; Function Attrs: nounwind uwtable
define internal void @php_sxe_iterator_current_key(ptr nocapture noundef readonly %0, ptr nocapture noundef writeonly %1) #1 {
  %3 = getelementptr inbounds i8, ptr %0, i64 88
  %4 = load ptr, ptr %3, align 8
  %5 = getelementptr inbounds i8, ptr %4, i64 56
  %6 = load ptr, ptr %5, align 8
  %7 = getelementptr inbounds i8, ptr %6, i64 -96
  %8 = load ptr, ptr %7, align 8
  %.not70 = icmp eq ptr %8, null
  br i1 %.not70, label %.thread, label %9

9:                                                ; preds = %2
  %10 = load ptr, ptr %8, align 8
  %.not71 = icmp eq ptr %10, null
  br i1 %.not71, label %.thread, label %11

11:                                               ; preds = %9
  %12 = getelementptr inbounds i8, ptr %10, i64 16
  %13 = load ptr, ptr %12, align 8
  %14 = tail call i32 @xmlStrlen(ptr noundef %13) #14
  %15 = sext i32 %14 to i64
  %16 = and i64 %15, -8
  %17 = add nsw i64 %16, 32
  %18 = tail call noalias ptr @_emalloc(i64 noundef %17) #15
  store i32 1, ptr %18, align 4
  %19 = getelementptr inbounds i8, ptr %18, i64 4
  store i32 22, ptr %19, align 4
  %20 = getelementptr inbounds i8, ptr %18, i64 8
  store i64 0, ptr %20, align 8
  %21 = getelementptr inbounds i8, ptr %18, i64 16
  store i64 %15, ptr %21, align 8
  %22 = getelementptr inbounds i8, ptr %18, i64 24
  tail call void @llvm.memcpy.p0.p0.i64(ptr nonnull align 8 %22, ptr align 1 %13, i64 %15, i1 false)
  %23 = getelementptr inbounds [1 x i8], ptr %22, i64 0, i64 %15
  store i8 0, ptr %23, align 1
  store ptr %18, ptr %1, align 8
  br label %.thread

.thread:                                          ; preds = %9, %2, %11
  %.sink = phi i32 [ 262, %11 ], [ 1, %2 ], [ 1, %9 ]
  %24 = getelementptr inbounds i8, ptr %1, i64 8
  store i32 %.sink, ptr %24, align 8
  ret void
}